; Function Attrs: nounwind uwtable
define i32 @Abc_ConvertZddToSop(ptr noundef %0, ptr noundef %1, ptr noundef %2, i32 noundef %3, ptr noundef %4, i32 noundef %5) local_unnamed_addr #2 {
  %7 = alloca i32, align 4
  call void @llvm.lifetime.start.p0(i64 4, ptr nonnull %7) #17
  store i32 0, ptr %7, align 4, !tbaa !6
  call void @Abc_ConvertZddToSop_rec(ptr noundef %0, ptr noundef %1, ptr noundef %2, i32 noundef %3, ptr noundef %4, i32 noundef %5, ptr noundef nonnull %7)
  %8 = load i32, ptr %7, align 4, !tbaa !6
  call void @llvm.lifetime.end.p0(i64 4, ptr nonnull %7) #17
  ret i32 %8
}